; ModuleID = '16/1176.c'
source_filename = "16/1176.c"
target datalayout = "e-m:e-p270:32:32-p271:32:32-p272:64:64-i64:64-f80:128-n8:16:32:64-S128"
target triple = "x86_64-pc-linux-gnu"

@.str = private unnamed_addr constant [3 x i8] c"%d\00", align 1
@.str.1 = private unnamed_addr constant [2 x i8] c"\0A\00", align 1
@.str.2 = private unnamed_addr constant [2 x i8] c"0\00", align 1

; Function Attrs: noinline nounwind uwtable
define dso_local i32 @main() #0 {
  %1 = alloca i32, align 4
  %2 = alloca i32, align 4
  %3 = alloca [5 x i32], align 16
  %4 = alloca i32, align 4
  %5 = alloca i32, align 4
  store i32 0, i32* %1, align 4
  %6 = call i32 (i8*, ...) @__isoc99_scanf(i8* getelementptr inbounds ([3 x i8], [3 x i8]* @.str, i64 0, i64 0), i32* %2)
  %7 = load i32, i32* %2, align 4
  %8 = sdiv i32 %7, 10000
  %9 = getelementptr inbounds [5 x i32], [5 x i32]* %3, i64 0, i64 0
  store i32 %8, i32* %9, align 16
  %10 = load i32, i32* %2, align 4
  %11 = sdiv i32 %10, 1000
  %12 = getelementptr inbounds [5 x i32], [5 x i32]* %3, i64 0, i64 0
  %13 = load i32, i32* %12, align 16
  %14 = mul nsw i32 10, %13
  %15 = sub nsw i32 %11, %14
  %16 = getelementptr inbounds [5 x i32], [5 x i32]* %3, i64 0, i64 1
  store i32 %15, i32* %16, align 4
  %17 = load i32, i32* %2, align 4
  %18 = sdiv i32 %17, 100
  %19 = getelementptr inbounds [5 x i32], [5 x i32]* %3, i64 0, i64 0
  %20 = load i32, i32* %19, align 16
  %21 = mul nsw i32 100, %20
  %22 = sub nsw i32 %18, %21
  %23 = getelementptr inbounds [5 x i32], [5 x i32]* %3, i64 0, i64 1
  %24 = load i32, i32* %23, align 4
  %25 = mul nsw i32 10, %24
  %26 = sub nsw i32 %22, %25
  %27 = getelementptr inbounds [5 x i32], [5 x i32]* %3, i64 0, i64 2
  store i32 %26, i32* %27, align 8
  %28 = load i32, i32* %2, align 4
  %29 = srem i32 %28, 10
  %30 = getelementptr inbounds [5 x i32], [5 x i32]* %3, i64 0, i64 4
  store i32 %29, i32* %30, align 16
  %31 = load i32, i32* %2, align 4
  %32 = srem i32 %31, 100
  %33 = load i32, i32* %2, align 4
  %34 = srem i32 %33, 10
  %35 = sub nsw i32 %32, %34
  %36 = sdiv i32 %35, 10
  %37 = getelementptr inbounds [5 x i32], [5 x i32]* %3, i64 0, i64 3
  store i32 %36, i32* %37, align 4
  %38 = call i32 (i8*, ...) @printf(i8* getelementptr inbounds ([2 x i8], [2 x i8]* @.str.1, i64 0, i64 0))
  %39 = load i32, i32* %2, align 4
  %40 = icmp ne i32 %39, 0
  br i1 %40, label %41, label %71

41:                                               ; preds = %0
  store i32 0, i32* %4, align 4
  br label %42

42:                                               ; preds = %67, %41
  %43 = load i32, i32* %4, align 4
  %44 = icmp slt i32 %43, 5
  br i1 %44, label %45, label %70

45:                                               ; preds = %42
  %46 = load i32, i32* %4, align 4
  %47 = sext i32 %46 to i64
  %48 = getelementptr inbounds [5 x i32], [5 x i32]* %3, i64 0, i64 %47
  %49 = load i32, i32* %48, align 4
  %50 = icmp eq i32 %49, 0
  br i1 %50, label %51, label %52

51:                                               ; preds = %45
  br label %67

52:                                               ; preds = %45
  store i32 4, i32* %5, align 4
  br label %53

53:                                               ; preds = %63, %52
  %54 = load i32, i32* %5, align 4
  %55 = load i32, i32* %4, align 4
  %56 = icmp sge i32 %54, %55
  br i1 %56, label %57, label %66

57:                                               ; preds = %53
  %58 = load i32, i32* %5, align 4
  %59 = sext i32 %58 to i64
  %60 = getelementptr inbounds [5 x i32], [5 x i32]* %3, i64 0, i64 %59
  %61 = load i32, i32* %60, align 4
  %62 = call i32 (i8*, ...) @printf(i8* getelementptr inbounds ([3 x i8], [3 x i8]* @.str, i64 0, i64 0), i32 %61)
  br label %63

63:                                               ; preds = %57
  %64 = load i32, i32* %5, align 4
  %65 = add nsw i32 %64, -1
  store i32 %65, i32* %5, align 4
  br label %53

66:                                               ; preds = %53
  br label %70

67:                                               ; preds = %51
  %68 = load i32, i32* %4, align 4
  %69 = add nsw i32 %68, 1
  store i32 %69, i32* %4, align 4
  br label %42

70:                                               ; preds = %66, %42
  br label %73

71:                                               ; preds = %0
  %72 = call i32 (i8*, ...) @printf(i8* getelementptr inbounds ([2 x i8], [2 x i8]* @.str.2, i64 0, i64 0))
  br label %73

73:                                               ; preds = %71, %70
  %74 = load i32, i32* %1, align 4
  ret i32 %74
}

declare dso_local i32 @__isoc99_scanf(i8*, ...) #1

declare dso_local i32 @printf(i8*, ...) #1


!llvm.module.flags = !{!0}
!llvm.ident = !{!1}

!0 = !{i32 1, !"wchar_size", i32 4}
!1 = !{!"clang version 10.0.0-4ubuntu1 "}
